target datalayout = "e-m:e-p270:32:32-p271:32:32-p272:64:64-i64:64-i128:128-f80:128-n8:16:32:64-S128"
target triple = "x86_64-pc-linux-gnu"

%struct.dt_masks_form_t = type { ptr, i32, ptr, [2 x float], [128 x i8], i32, i32 }
%struct._GList = type { ptr, ptr, ptr }

; Function Attrs: nounwind uwtable
define internal void @_gradient_duplicate_points(ptr noundef %0, ptr noundef %1, ptr noundef %2) #0 {
  %4 = alloca ptr, align 8
  %5 = alloca ptr, align 8
  %6 = alloca ptr, align 8
  %7 = alloca ptr, align 8
  %8 = alloca ptr, align 8
  %9 = alloca ptr, align 8
  store ptr %0, ptr %4, align 8, !tbaa !46
  store ptr %1, ptr %5, align 8, !tbaa !10
  store ptr %2, ptr %6, align 8, !tbaa !10
  call void @llvm.lifetime.start.p0(i64 8, ptr %7) #11
  %10 = load ptr, ptr %5, align 8, !tbaa !10
  %11 = getelementptr inbounds nuw %struct.dt_masks_form_t, ptr %10, i32 0, i32 0
  %12 = load ptr, ptr %11, align 8, !tbaa !34
  store ptr %12, ptr %7, align 8, !tbaa !48
  br label %13

13:                                               ; preds = %39, %3
  %14 = load ptr, ptr %7, align 8, !tbaa !48
  %15 = icmp ne ptr %14, null
  br i1 %15, label %17, label %16

16:                                               ; preds = %13
  call void @llvm.lifetime.end.p0(i64 8, ptr %7) #11
  br label %41

17:                                               ; preds = %13
  call void @llvm.lifetime.start.p0(i64 8, ptr %8) #11
  %18 = load ptr, ptr %7, align 8, !tbaa !48
  %19 = getelementptr inbounds nuw %struct._GList, ptr %18, i32 0, i32 0
  %20 = load ptr, ptr %19, align 8, !tbaa !37
  store ptr %20, ptr %8, align 8, !tbaa !39
  call void @llvm.lifetime.start.p0(i64 8, ptr %9) #11
  %21 = call noalias ptr @malloc(i64 noundef 28) #12
  store ptr %21, ptr %9, align 8, !tbaa !39
  %22 = load ptr, ptr %9, align 8, !tbaa !39
  %23 = load ptr, ptr %8, align 8, !tbaa !39
  call void @llvm.memcpy.p0.p0.i64(ptr align 4 %22, ptr align 4 %23, i64 28, i1 false)
  %24 = load ptr, ptr %6, align 8, !tbaa !10
  %25 = getelementptr inbounds nuw %struct.dt_masks_form_t, ptr %24, i32 0, i32 0
  %26 = load ptr, ptr %25, align 8, !tbaa !34
  %27 = load ptr, ptr %9, align 8, !tbaa !39
  %28 = call ptr @g_list_append(ptr noundef %26, ptr noundef %27)
  %29 = load ptr, ptr %6, align 8, !tbaa !10
  %30 = getelementptr inbounds nuw %struct.dt_masks_form_t, ptr %29, i32 0, i32 0
  store ptr %28, ptr %30, align 8, !tbaa !34
  call void @llvm.lifetime.end.p0(i64 8, ptr %9) #11
  call void @llvm.lifetime.end.p0(i64 8, ptr %8) #11
  br label %31

31:                                               ; preds = %17
  %32 = load ptr, ptr %7, align 8, !tbaa !48
  %33 = icmp ne ptr %32, null
  br i1 %33, label %34, label %38

34:                                               ; preds = %31
  %35 = load ptr, ptr %7, align 8, !tbaa !48
  %36 = getelementptr inbounds nuw %struct._GList, ptr %35, i32 0, i32 1
  %37 = load ptr, ptr %36, align 8, !tbaa !49
  br label %39

38:                                               ; preds = %31
  br label %39

39:                                               ; preds = %38, %34
  %40 = phi ptr [ %37, %34 ], [ null, %38 ]
  store ptr %40, ptr %7, align 8, !tbaa !48
  br label %13

41:                                               ; preds = %16
  ret void
}