; Function Attrs: nounwind uwtable
define internal void @_gradient_duplicate_points(ptr readnone captures(none) %0, ptr noundef readonly captures(none) %1, ptr noundef captures(none) %2) #0 {
  %.010 = load ptr, ptr %1, align 8, !tbaa !31
  %.not11 = icmp eq ptr %.010, null
  br i1 %.not11, label %._crit_edge, label %.lr.ph.preheader

.lr.ph.preheader:                                 ; preds = %3
  %.pre = load ptr, ptr %2, align 8, !tbaa !19
  br label %.lr.ph

._crit_edge:                                      ; preds = %.lr.ph, %3
  ret void

.lr.ph:                                           ; preds = %.lr.ph.preheader, %.lr.ph
  %4 = phi ptr [ %7, %.lr.ph ], [ %.pre, %.lr.ph.preheader ]
  %.012 = phi ptr [ %.0, %.lr.ph ], [ %.010, %.lr.ph.preheader ]
  %5 = load ptr, ptr %.012, align 8, !tbaa !22
  %6 = tail call noalias dereferenceable_or_null(28) ptr @malloc(i64 noundef 28) #14
  tail call void @llvm.memcpy.p0.p0.i64(ptr noundef nonnull align 4 dereferenceable(28) %6, ptr noundef nonnull align 4 dereferenceable(28) %5, i64 28, i1 false)
  %7 = tail call ptr @g_list_append(ptr noundef %4, ptr noundef nonnull %6) #13
  store ptr %7, ptr %2, align 8, !tbaa !19
  %8 = getelementptr inbounds nuw i8, ptr %.012, i64 8
  %.0 = load ptr, ptr %8, align 8, !tbaa !31
  %.not = icmp eq ptr %.0, null
  br i1 %.not, label %._crit_edge, label %.lr.ph
}